	.file	"ee_oo_api_osek.c"
__SP_H__ = 0x3e
__SP_L__ = 0x3d
__SREG__ = 0x3f
__tmp_reg__ = 0
__zero_reg__ = 1
	.text
.Ltext0:
	.cfi_sections	.debug_frame
	.section	.text.DisableAllInterrupts,"ax",@progbits
.global	DisableAllInterrupts
	.type	DisableAllInterrupts, @function
DisableAllInterrupts:
.LFB63:
	.file 1 "C:\\TMP_WO~1\\lab2_v2\\erika\\src\\ee_oo_api_osek.c"
	.loc 1 64 0
	.cfi_startproc
/* prologue: function */
/* frame size = 0 */
/* stack size = 0 */
.L__stack_usage = 0
	.loc 1 66 0
	lds r30,osEE_cdb_var
	lds r31,osEE_cdb_var+1
.LBB481:
.LBB482:
	.file 2 "C:\\TMP_WO~1\\lab2_v2\\erika\\src\\ee_hal_internal.h"
	.loc 2 105 0
/* #APP */
 ;  105 "C:\TMP_WO~1\lab2_v2\erika\src\ee_hal_internal.h" 1
	cli
 ;  0 "" 2
.LVL0:
/* #NOAPP */
.LBE482:
.LBE481:
	.loc 1 73 0
	ldi r24,lo8(1)
	std Z+17,r24
.LVL1:
/* epilogue start */
	.loc 1 76 0
	ret
	.cfi_endproc
.LFE63:
	.size	DisableAllInterrupts, .-DisableAllInterrupts
	.section	.text.EnableAllInterrupts,"ax",@progbits
.global	EnableAllInterrupts
	.type	EnableAllInterrupts, @function
EnableAllInterrupts:
.LFB64:
	.loc 1 83 0
	.cfi_startproc
/* prologue: function */
/* frame size = 0 */
/* stack size = 0 */
.L__stack_usage = 0
	.loc 1 90 0
	lds r30,osEE_cdb_var
	lds r31,osEE_cdb_var+1
.LVL2:
	.loc 1 96 0
	ldd r24,Z+17
	tst r24
	breq .L2
	.loc 1 97 0
	std Z+17,__zero_reg__
.LBB483:
.LBB484:
	.loc 2 110 0
/* #APP */
 ;  110 "C:\TMP_WO~1\lab2_v2\erika\src\ee_hal_internal.h" 1
	sei
 ;  0 "" 2
.LVL3:
/* #NOAPP */
.L2:
/* epilogue start */
.LBE484:
.LBE483:
	.loc 1 104 0
	ret
	.cfi_endproc
.LFE64:
	.size	EnableAllInterrupts, .-EnableAllInterrupts
	.section	.text.SuspendAllInterrupts,"ax",@progbits
.global	SuspendAllInterrupts
	.type	SuspendAllInterrupts, @function
SuspendAllInterrupts:
.LFB66:
	.loc 1 133 0
	.cfi_startproc
/* prologue: function */
/* frame size = 0 */
/* stack size = 0 */
.L__stack_usage = 0
	.loc 1 135 0
	lds r30,osEE_cdb_var
	lds r31,osEE_cdb_var+1
.LVL4:
.LBB497:
.LBB498:
	.loc 1 113 0
	ldd r24,Z+15
	cpse r24,__zero_reg__
	rjmp .L8
.LBB499:
.LBB500:
.LBB501:
	.loc 2 116 0
	in r24,__SREG__
.LVL5:
.LBB502:
.LBB503:
	.loc 2 105 0
/* #APP */
 ;  105 "C:\TMP_WO~1\lab2_v2\erika\src\ee_hal_internal.h" 1
	cli
 ;  0 "" 2
.LVL6:
/* #NOAPP */
.LBE503:
.LBE502:
.LBE501:
.LBE500:
	.loc 1 115 0
	std Z+13,r24
	.loc 1 116 0
	ldd r24,Z+15
.L12:
.LBE499:
	.loc 1 118 0
	subi r24,lo8(-(1))
	std Z+15,r24
/* epilogue start */
.LBE498:
.LBE497:
	.loc 1 146 0
	ret
.L8:
.LBB509:
.LBB508:
	.loc 1 117 0
	cpi r24,lo8(-1)
	brne .L12
.LVL7:
.LBB504:
.LBB505:
	.file 3 "C:\\TMP_WO~1\\lab2_v2\\erika\\src\\ee_kernel.h"
	.loc 3 694 0
	ldi r24,lo8(3)
	ldi r25,0
	std Z+9,r25
	std Z+8,r24
	.loc 3 696 0
	ldi r24,lo8(25)
	ldi r25,0
	std Z+12,r25
	std Z+11,r24
.LBB506:
.LBB507:
	.loc 2 105 0
/* #APP */
 ;  105 "C:\TMP_WO~1\lab2_v2\erika\src\ee_hal_internal.h" 1
	cli
 ;  0 "" 2
/* #NOAPP */
.L11:
	rjmp .L11
.LBE507:
.LBE506:
.LBE505:
.LBE504:
.LBE508:
.LBE509:
	.cfi_endproc
.LFE66:
	.size	SuspendAllInterrupts, .-SuspendAllInterrupts
	.section	.text.ResumeAllInterrupts,"ax",@progbits
.global	ResumeAllInterrupts
	.type	ResumeAllInterrupts, @function
ResumeAllInterrupts:
.LFB67:
	.loc 1 153 0
	.cfi_startproc
/* prologue: function */
/* frame size = 0 */
/* stack size = 0 */
.L__stack_usage = 0
	.loc 1 155 0
	lds r30,osEE_cdb_var
	lds r31,osEE_cdb_var+1
.LVL8:
	.loc 1 161 0
	ldd r24,Z+15
	tst r24
	breq .L13
	.loc 1 162 0
	subi r24,lo8(-(-1))
	std Z+15,r24
	.loc 1 164 0
	cpse r24,__zero_reg__
	rjmp .L13
	.loc 1 165 0
	ldd r24,Z+13
.LVL9:
.LBB510:
.LBB511:
	.loc 2 123 0
	.loc 2 124 0
	out __SREG__,r24
.LVL10:
.L13:
/* epilogue start */
.LBE511:
.LBE510:
	.loc 1 172 0
	ret
	.cfi_endproc
.LFE67:
	.size	ResumeAllInterrupts, .-ResumeAllInterrupts
	.section	.text.SuspendOSInterrupts,"ax",@progbits
.global	SuspendOSInterrupts
	.type	SuspendOSInterrupts, @function
SuspendOSInterrupts:
.LFB68:
	.loc 1 179 0
	.cfi_startproc
/* prologue: function */
/* frame size = 0 */
/* stack size = 0 */
.L__stack_usage = 0
	.loc 1 181 0
	lds r30,osEE_cdb_var
	lds r31,osEE_cdb_var+1
.LVL11:
	.loc 1 187 0
	ldd r24,Z+16
	cpse r24,__zero_reg__
	rjmp .L18
.LBB512:
.LBB513:
.LBB514:
.LBB515:
	.loc 2 116 0
	in r24,__SREG__
.LVL12:
.LBB516:
.LBB517:
	.loc 2 105 0
/* #APP */
 ;  105 "C:\TMP_WO~1\lab2_v2\erika\src\ee_hal_internal.h" 1
	cli
 ;  0 "" 2
.LVL13:
/* #NOAPP */
.LBE517:
.LBE516:
.LBE515:
.LBE514:
.LBE513:
	.loc 1 189 0
	std Z+14,r24
	.loc 1 190 0
	ldd r24,Z+16
.L22:
.LBE512:
	.loc 1 192 0
	subi r24,lo8(-(1))
	std Z+16,r24
/* epilogue start */
	.loc 1 204 0
	ret
.L18:
	.loc 1 191 0
	cpi r24,lo8(-1)
	brne .L22
.LVL14:
.LBB518:
.LBB519:
	.loc 3 694 0
	ldi r24,lo8(3)
	ldi r25,0
	std Z+9,r25
	std Z+8,r24
	.loc 3 696 0
	ldi r24,lo8(25)
	ldi r25,0
	std Z+12,r25
	std Z+11,r24
.LBB520:
.LBB521:
	.loc 2 105 0
/* #APP */
 ;  105 "C:\TMP_WO~1\lab2_v2\erika\src\ee_hal_internal.h" 1
	cli
 ;  0 "" 2
/* #NOAPP */
.L21:
	rjmp .L21
.LBE521:
.LBE520:
.LBE519:
.LBE518:
	.cfi_endproc
.LFE68:
	.size	SuspendOSInterrupts, .-SuspendOSInterrupts
	.section	.text.ResumeOSInterrupts,"ax",@progbits
.global	ResumeOSInterrupts
	.type	ResumeOSInterrupts, @function
ResumeOSInterrupts:
.LFB69:
	.loc 1 211 0
	.cfi_startproc
/* prologue: function */
/* frame size = 0 */
/* stack size = 0 */
.L__stack_usage = 0
	.loc 1 213 0
	lds r30,osEE_cdb_var
	lds r31,osEE_cdb_var+1
.LVL15:
	.loc 1 219 0
	ldd r24,Z+16
	tst r24
	breq .L23
	.loc 1 220 0
	subi r24,lo8(-(-1))
	std Z+16,r24
	.loc 1 222 0
	cpse r24,__zero_reg__
	rjmp .L23
	.loc 1 223 0
	ldd r24,Z+14
.LVL16:
.LBB522:
.LBB523:
.LBB524:
	.loc 2 123 0
	.loc 2 124 0
	out __SREG__,r24
.LVL17:
.L23:
/* epilogue start */
.LBE524:
.LBE523:
.LBE522:
	.loc 1 230 0
	ret
	.cfi_endproc
.LFE69:
	.size	ResumeOSInterrupts, .-ResumeOSInterrupts
	.section	.text.StartOS,"ax",@progbits
.global	StartOS
	.type	StartOS, @function
StartOS:
.LFB70:
	.loc 1 237 0
	.cfi_startproc
.LVL18:
	push r7
.LCFI0:
	.cfi_def_cfa_offset 3
	.cfi_offset 7, -2
	push r8
.LCFI1:
	.cfi_def_cfa_offset 4
	.cfi_offset 8, -3
	push r9
.LCFI2:
	.cfi_def_cfa_offset 5
	.cfi_offset 9, -4
	push r10
.LCFI3:
	.cfi_def_cfa_offset 6
	.cfi_offset 10, -5
	push r11
.LCFI4:
	.cfi_def_cfa_offset 7
	.cfi_offset 11, -6
	push r12
.LCFI5:
	.cfi_def_cfa_offset 8
	.cfi_offset 12, -7
	push r13
.LCFI6:
	.cfi_def_cfa_offset 9
	.cfi_offset 13, -8
	push r14
.LCFI7:
	.cfi_def_cfa_offset 10
	.cfi_offset 14, -9
	push r15
.LCFI8:
	.cfi_def_cfa_offset 11
	.cfi_offset 15, -10
	push r16
.LCFI9:
	.cfi_def_cfa_offset 12
	.cfi_offset 16, -11
	push r17
.LCFI10:
	.cfi_def_cfa_offset 13
	.cfi_offset 17, -12
	push r28
.LCFI11:
	.cfi_def_cfa_offset 14
	.cfi_offset 28, -13
	push r29
.LCFI12:
	.cfi_def_cfa_offset 15
	.cfi_offset 29, -14
	rcall .
.LCFI13:
	.cfi_def_cfa_offset 17
	in r28,__SP_L__
	in r29,__SP_H__
.LCFI14:
	.cfi_def_cfa_register 28
/* prologue: function */
/* frame size = 2 */
/* stack size = 15 */
.L__stack_usage = 15
.LVL19:
	.loc 1 246 0
	lds r16,osEE_cdb_var
	lds r17,osEE_cdb_var+1
.LVL20:
.LBB542:
.LBB543:
.LBB544:
.LBB545:
	.loc 2 116 0
	in r25,__SREG__
.LVL21:
.LBB546:
.LBB547:
	.loc 2 105 0
/* #APP */
 ;  105 "C:\TMP_WO~1\lab2_v2\erika\src\ee_hal_internal.h" 1
	cli
 ;  0 "" 2
.LVL22:
/* #NOAPP */
.LBE547:
.LBE546:
.LBE545:
.LBE544:
.LBE543:
.LBE542:
	.loc 1 254 0
	movw r26,r16
	adiw r26,8
	ld r18,X+
	ld r19,X
	or r18,r19
	breq .L28
.LVL23:
.LBB548:
.LBB549:
.LBB550:
.LBB551:
	.loc 2 123 0
	.loc 2 124 0
	out __SREG__,r25
.LVL24:
.LBE551:
.LBE550:
.LBE549:
.LBE548:
	.loc 1 258 0
	ldi r24,lo8(1)
	ldi r25,0
.LVL25:
.L27:
/* epilogue start */
	.loc 1 582 0
	pop __tmp_reg__
	pop __tmp_reg__
	pop r29
	pop r28
	pop r17
	pop r16
	pop r15
	pop r14
	pop r13
	pop r12
	pop r11
	pop r10
	pop r9
	pop r8
	pop r7
	ret
.LVL26:
.L28:
	mov r15,r24
.LBB552:
.LBB553:
	.loc 2 173 0
	ldi r24,lo8(gs(osEE_atmega_intvect))
	ldi r25,hi8(gs(osEE_atmega_intvect))
.LVL27:
	std Y+2,r25
	std Y+1,r24
	.loc 2 177 0
	call osEE_avr8_system_timer_init
.LVL28:
.LBE553:
.LBE552:
.LBB554:
	.loc 1 280 0
	lds r12,osEE_cdb_var+4
	lds r13,osEE_cdb_var+4+1
.LVL29:
	.loc 1 300 0
	ldi r24,lo8(1)
	ldi r25,0
	movw r30,r16
	std Z+9,r25
	std Z+8,r24
	.loc 1 301 0
	std Z+10,r15
.LVL30:
.LBB555:
	.loc 1 402 0
	lds r30,osEE_cdb_var+8
	lds r31,osEE_cdb_var+8+1
.LVL31:
	.loc 1 410 0
	ldi r18,lo8(4)
	mul r15,r18
	movw r24,r0
	clr __zero_reg__
	add r30,r24
	adc r31,r25
	ldd r10,Z+2
	ldd r11,Z+3
.LVL32:
	.loc 1 411 0
	mov r15,__zero_reg__
.LVL33:
	mov r14,__zero_reg__
.LBB556:
	.loc 1 413 0
	movw r8,r30
	.loc 1 415 0
	ldi r24,lo8(6)
	mov r7,r24
.LVL34:
.L30:
.LBE556:
	.loc 1 411 0 discriminator 1
	cp r14,r10
	cpc r15,r11
	brne .L31
.LBE555:
	.loc 1 527 0
	movw r30,r16
	ldd r24,Z+8
	ldd r25,Z+9
	sbiw r24,1
	brne .L32
	.loc 1 528 0
	ldi r24,lo8(2)
	ldi r25,0
	std Z+9,r25
	std Z+8,r24
.L32:
.LVL35:
	.loc 1 537 0
	movw r26,r16
	adiw r26,8
	ld r24,X+
	ld r25,X
	sbiw r24,2
	brne .L33
.LVL36:
.LBB558:
.LBB559:
	.file 4 "C:\\TMP_WO~1\\lab2_v2\\erika\\src\\ee_std_change_context.h"
	.loc 4 150 0
	movw r30,r12
	ldd r22,Z+2
	ldd r23,Z+3
	movw r20,r22
	movw r24,r12
	call osEE_hal_save_ctx_and_ready2stacked
.LVL37:
.LBE559:
.LBE558:
	.loc 1 539 0
	movw r24,r12
	call osEE_task_end
.LVL38:
.L33:
.LBE554:
	.loc 1 238 0
	ldi r25,0
	ldi r24,0
	.loc 1 581 0
	rjmp .L27
.LVL39:
.L31:
.LBB561:
.LBB560:
.LBB557:
	.loc 1 413 0 discriminator 3
	movw r26,r8
	ld r30,X+
	ld r31,X
.LVL40:
	.loc 1 415 0 discriminator 3
	mul r7,r14
	movw r24,r0
	mul r7,r15
	add r25,r0
	clr __zero_reg__
	add r30,r24
	adc r31,r25
.LVL41:
	ld r26,Z
	ldd r27,Z+1
.LVL42:
	.loc 1 417 0 discriminator 3
	ldd r18,Z+4
	ldd r19,Z+5
	ldd r20,Z+2
	ldd r21,Z+3
	movw r22,r26
	adiw r26,2
	ld r24,X+
	ld r25,X
	call osEE_alarm_set_rel
.LVL43:
.LBE557:
	.loc 1 411 0 discriminator 3
	ldi r27,-1
	sub r14,r27
	sbc r15,r27
.LVL44:
	rjmp .L30
.LBE560:
.LBE561:
	.cfi_endproc
.LFE70:
	.size	StartOS, .-StartOS
	.section	.text.GetActiveApplicationMode,"ax",@progbits
.global	GetActiveApplicationMode
	.type	GetActiveApplicationMode, @function
GetActiveApplicationMode:
.LFB71:
	.loc 1 589 0
	.cfi_startproc
/* prologue: function */
/* frame size = 0 */
/* stack size = 0 */
.L__stack_usage = 0
	.loc 1 598 0
	lds r30,osEE_cdb_var
	lds r31,osEE_cdb_var+1
.LVL45:
	.loc 1 604 0
	ldd r24,Z+8
	ldd r25,Z+9
	or r24,r25
	breq .L36
	.loc 1 605 0
	ldd r24,Z+10
.LVL46:
	ret
.LVL47:
.L36:
	.loc 1 607 0
	ldi r24,lo8(-1)
.LVL48:
/* epilogue start */
	.loc 1 613 0
	ret
	.cfi_endproc
.LFE71:
	.size	GetActiveApplicationMode, .-GetActiveApplicationMode
	.section	.text.ActivateTask,"ax",@progbits
.global	ActivateTask
	.type	ActivateTask, @function
ActivateTask:
.LFB72:
	.loc 1 620 0
	.cfi_startproc
.LVL49:
	push r15
.LCFI15:
	.cfi_def_cfa_offset 3
	.cfi_offset 15, -2
	push r16
.LCFI16:
	.cfi_def_cfa_offset 4
	.cfi_offset 16, -3
	push r17
.LCFI17:
	.cfi_def_cfa_offset 5
	.cfi_offset 17, -4
	push r28
.LCFI18:
	.cfi_def_cfa_offset 6
	.cfi_offset 28, -5
	push r29
.LCFI19:
	.cfi_def_cfa_offset 7
	.cfi_offset 29, -6
/* prologue: function */
/* frame size = 0 */
/* stack size = 5 */
.L__stack_usage = 5
.LVL50:
.LBB562:
.LBB563:
	.loc 3 276 0
	ldi r25,0
.LBE563:
.LBE562:
	.loc 1 655 0
	lds r18,osEE_kdb_var+4
	lds r19,osEE_kdb_var+4+1
	cp r24,r18
	cpc r25,r19
	brsh .L41
.LBB564:
	.loc 1 660 0
	lds r18,osEE_kdb_var+2
	lds r19,osEE_kdb_var+2+1
	lsl r24
	rol r25
.LVL51:
	add r24,r18
	adc r25,r19
	movw r30,r24
	ld r16,Z
	ldd r17,Z+1
.LVL52:
	.loc 1 662 0
	movw r30,r16
	ldd r24,Z+7
	ldd r25,Z+8
	sbiw r24,2
	brsh .L41
.LBB565:
.LBB566:
.LBB567:
.LBB568:
.LBB569:
	.loc 2 116 0
	in r15,__SREG__
.LVL53:
.LBB570:
.LBB571:
	.loc 2 105 0
/* #APP */
 ;  105 "C:\TMP_WO~1\lab2_v2\erika\src\ee_hal_internal.h" 1
	cli
 ;  0 "" 2
.LVL54:
/* #NOAPP */
.LBE571:
.LBE570:
.LBE569:
.LBE568:
.LBE567:
.LBE566:
	.loc 1 665 0
	movw r24,r16
	call osEE_task_activated
.LVL55:
	movw r28,r24
.LVL56:
	.loc 1 667 0
	or r24,r25
	brne .L39
	.loc 1 668 0
	movw r22,r16
	ldi r24,lo8(osEE_kdb_var)
	ldi r25,hi8(osEE_kdb_var)
.LVL57:
	call osEE_scheduler_task_activated
.LVL58:
.L39:
.LBB572:
.LBB573:
.LBB574:
.LBB575:
	.loc 2 123 0
	.loc 2 124 0
	out __SREG__,r15
.LVL59:
.L37:
.LBE575:
.LBE574:
.LBE573:
.LBE572:
.LBE565:
.LBE564:
	.loc 1 692 0
	movw r24,r28
/* epilogue start */
	pop r29
	pop r28
	pop r17
	pop r16
	pop r15
	ret
.L41:
	.loc 1 656 0
	ldi r28,lo8(3)
	ldi r29,0
.LVL60:
	.loc 1 691 0
	rjmp .L37
	.cfi_endproc
.LFE72:
	.size	ActivateTask, .-ActivateTask
	.section	.text.ChainTask,"ax",@progbits
.global	ChainTask
	.type	ChainTask, @function
ChainTask:
.LFB73:
	.loc 1 699 0
	.cfi_startproc
.LVL61:
	push r15
.LCFI20:
	.cfi_def_cfa_offset 3
	.cfi_offset 15, -2
	push r16
.LCFI21:
	.cfi_def_cfa_offset 4
	.cfi_offset 16, -3
	push r17
.LCFI22:
	.cfi_def_cfa_offset 5
	.cfi_offset 17, -4
	push r28
.LCFI23:
	.cfi_def_cfa_offset 6
	.cfi_offset 28, -5
	push r29
.LCFI24:
	.cfi_def_cfa_offset 7
	.cfi_offset 29, -6
/* prologue: function */
/* frame size = 0 */
/* stack size = 5 */
.L__stack_usage = 5
.LVL62:
.LBB576:
.LBB577:
	.loc 3 276 0
	ldi r25,0
.LBE577:
.LBE576:
	.loc 1 745 0
	lds r18,osEE_kdb_var+4
	lds r19,osEE_kdb_var+4+1
	cp r24,r18
	cpc r25,r19
	brlo .+2
	rjmp .L50
.LBB578:
	.loc 1 749 0
	lds r18,osEE_kdb_var+2
	lds r19,osEE_kdb_var+2+1
	lsl r24
	rol r25
.LVL63:
	add r24,r18
	adc r25,r19
	movw r30,r24
	ld r16,Z
	ldd r17,Z+1
.LVL64:
	.loc 1 771 0
	movw r30,r16
	ldd r24,Z+7
	ldd r25,Z+8
	sbiw r24,2
	brsh .L50
.LBE578:
	.loc 1 711 0
	lds r28,osEE_cdb_var
	lds r29,osEE_cdb_var+1
	.loc 1 713 0
	ld r30,Y
	ldd r31,Y+1
.LBB597:
.LBB579:
	.loc 1 775 0
	ldd r24,Y+15
	tst r24
	breq .L44
	.loc 1 776 0
	std Y+15,__zero_reg__
.LVL65:
	.loc 1 777 0
	ldd r24,Y+13
.LVL66:
.LBB580:
.LBB581:
	.loc 2 123 0
	.loc 2 124 0
	out __SREG__,r24
.LVL67:
.L44:
.LBE581:
.LBE580:
	.loc 1 779 0
	ldd r24,Y+17
	tst r24
	breq .L45
	.loc 1 780 0
	std Y+17,__zero_reg__
.LBB582:
.LBB583:
	.loc 2 110 0
/* #APP */
 ;  110 "C:\TMP_WO~1\lab2_v2\erika\src\ee_hal_internal.h" 1
	sei
 ;  0 "" 2
/* #NOAPP */
.L45:
.LBE583:
.LBE582:
.LBB584:
.LBB585:
.LBB586:
.LBB587:
	.loc 2 116 0
	in r15,__SREG__
.LVL68:
.LBB588:
.LBB589:
	.loc 2 105 0
/* #APP */
 ;  105 "C:\TMP_WO~1\lab2_v2\erika\src\ee_hal_internal.h" 1
	cli
 ;  0 "" 2
.LVL69:
/* #NOAPP */
.LBE589:
.LBE588:
.LBE587:
.LBE586:
.LBE585:
.LBE584:
	.loc 1 787 0
	cp r30,r16
	cpc r31,r17
	brne .L46
	.loc 1 789 0
	ldd __tmp_reg__,Z+4
	ldd r31,Z+5
	mov r30,__tmp_reg__
	ldi r24,lo8(5)
	ldi r25,0
	std Z+3,r25
	std Z+2,r24
.LVL70:
.L47:
.LBB590:
.LBB591:
	.loc 4 141 0
	ld r30,Y
	ldd r31,Y+1
	ldi r22,lo8(gs(osEE_scheduler_task_end))
	ldi r23,hi8(gs(osEE_scheduler_task_end))
	ldd r24,Z+2
	ldd r25,Z+3
	call osEE_hal_terminate_ctx
.LVL71:
.L46:
.LBE591:
.LBE590:
	.loc 1 792 0
	movw r24,r16
	call osEE_task_activated
.LVL72:
	.loc 1 793 0
	sbiw r24,0
	brne .L48
	.loc 1 794 0
	movw r22,r16
	ldi r24,lo8(osEE_kdb_var)
	ldi r25,hi8(osEE_kdb_var)
.LVL73:
	call osEE_scheduler_task_insert
.LVL74:
	rjmp .L47
.LVL75:
.L50:
.LBE579:
.LBE597:
	.loc 1 746 0
	ldi r24,lo8(3)
	ldi r25,0
.LVL76:
.L42:
/* epilogue start */
	.loc 1 822 0
	pop r29
	pop r28
	pop r17
	pop r16
	pop r15
	ret
.LVL77:
.L48:
.LBB598:
.LBB596:
.LBB592:
.LBB593:
.LBB594:
.LBB595:
	.loc 2 123 0
	.loc 2 124 0
	out __SREG__,r15
.LVL78:
	rjmp .L42
.LBE595:
.LBE594:
.LBE593:
.LBE592:
.LBE596:
.LBE598:
	.cfi_endproc
.LFE73:
	.size	ChainTask, .-ChainTask
	.section	.text.TerminateTask,"ax",@progbits
.global	TerminateTask
	.type	TerminateTask, @function
TerminateTask:
.LFB74:
	.loc 1 829 0
	.cfi_startproc
/* prologue: function */
/* frame size = 0 */
/* stack size = 0 */
.L__stack_usage = 0
	.loc 1 840 0
	lds r30,osEE_cdb_var
	lds r31,osEE_cdb_var+1
.LVL79:
	.loc 1 842 0
	ld r26,Z
	ldd r27,Z+1
.LVL80:
.LBB599:
	.loc 1 902 0
	ldd r24,Z+15
	tst r24
	breq .L58
	.loc 1 903 0
	std Z+15,__zero_reg__
	.loc 1 904 0
	ldd r24,Z+13
.LVL81:
.LBB600:
.LBB601:
	.loc 2 123 0
	.loc 2 124 0
	out __SREG__,r24
.LVL82:
.L58:
.LBE601:
.LBE600:
	.loc 1 906 0
	ldd r24,Z+17
	tst r24
	breq .L59
	.loc 1 907 0
	std Z+17,__zero_reg__
.LBB602:
.LBB603:
	.loc 2 110 0
/* #APP */
 ;  110 "C:\TMP_WO~1\lab2_v2\erika\src\ee_hal_internal.h" 1
	sei
 ;  0 "" 2
/* #NOAPP */
.L59:
.LBE603:
.LBE602:
.LBB604:
.LBB605:
.LBB606:
.LBB607:
	.loc 2 116 0
	in r24,__SREG__
.LBB608:
.LBB609:
	.loc 2 105 0
/* #APP */
 ;  105 "C:\TMP_WO~1\lab2_v2\erika\src\ee_hal_internal.h" 1
	cli
 ;  0 "" 2
.LVL83:
/* #NOAPP */
.LBE609:
.LBE608:
.LBE607:
.LBE606:
.LBE605:
.LBE604:
.LBB610:
.LBB611:
	.loc 4 141 0
	ldi r22,lo8(gs(osEE_scheduler_task_end))
	ldi r23,hi8(gs(osEE_scheduler_task_end))
	adiw r26,2
	ld r24,X+
	ld r25,X
	call osEE_hal_terminate_ctx
.LVL84:
.LBE611:
.LBE610:
.LBE599:
	.cfi_endproc
.LFE74:
	.size	TerminateTask, .-TerminateTask
	.section	.text.Schedule,"ax",@progbits
.global	Schedule
	.type	Schedule, @function
Schedule:
.LFB75:
	.loc 1 944 0
	.cfi_startproc
	push r15
.LCFI25:
	.cfi_def_cfa_offset 3
	.cfi_offset 15, -2
	push r16
.LCFI26:
	.cfi_def_cfa_offset 4
	.cfi_offset 16, -3
	push r17
.LCFI27:
	.cfi_def_cfa_offset 5
	.cfi_offset 17, -4
	push r28
.LCFI28:
	.cfi_def_cfa_offset 6
	.cfi_offset 28, -5
	push r29
.LCFI29:
	.cfi_def_cfa_offset 7
	.cfi_offset 29, -6
/* prologue: function */
/* frame size = 0 */
/* stack size = 5 */
.L__stack_usage = 5
.LVL85:
	.loc 1 953 0
	lds r30,osEE_cdb_var
	lds r31,osEE_cdb_var+1
	ld r28,Z
	ldd r29,Z+1
.LVL86:
	.loc 1 954 0
	ldd r16,Y+4
	ldd r17,Y+5
.LVL87:
	.loc 1 1003 0
	movw r30,r16
	ldd r25,Z+1
	ldd r24,Y+12
	cpse r25,r24
	rjmp .L67
.LBB612:
.LBB613:
.LBB614:
.LBB615:
.LBB616:
	.loc 2 116 0
	in r15,__SREG__
.LVL88:
.LBB617:
.LBB618:
	.loc 2 105 0
/* #APP */
 ;  105 "C:\TMP_WO~1\lab2_v2\erika\src\ee_hal_internal.h" 1
	cli
 ;  0 "" 2
.LVL89:
/* #NOAPP */
.LBE618:
.LBE617:
.LBE616:
.LBE615:
.LBE614:
.LBE613:
	.loc 1 1009 0
	ldd r24,Y+11
	std Z+1,r24
	.loc 1 1011 0
	ldi r24,lo8(osEE_kdb_var)
	ldi r25,hi8(osEE_kdb_var)
	call osEE_scheduler_task_preemption_point
.LVL90:
	.loc 1 1013 0
	ldd r24,Y+12
	movw r30,r16
	std Z+1,r24
.LBB619:
.LBB620:
.LBB621:
.LBB622:
	.loc 2 123 0
	.loc 2 124 0
	out __SREG__,r15
.LVL91:
.L67:
.LBE622:
.LBE621:
.LBE620:
.LBE619:
.LBE612:
	.loc 1 1037 0
	ldi r25,0
	ldi r24,0
/* epilogue start */
	pop r29
	pop r28
.LVL92:
	pop r17
	pop r16
.LVL93:
	pop r15
	ret
	.cfi_endproc
.LFE75:
	.size	Schedule, .-Schedule
	.section	.text.ShutdownOS,"ax",@progbits
.global	ShutdownOS
	.type	ShutdownOS, @function
ShutdownOS:
.LFB76:
	.loc 1 1267 0
	.cfi_startproc
.LVL94:
/* prologue: function */
/* frame size = 0 */
/* stack size = 0 */
.L__stack_usage = 0
	movw r20,r24
	.loc 1 1275 0
	lds r30,osEE_cdb_var
	lds r31,osEE_cdb_var+1
.LVL95:
.LBB623:
.LBB624:
.LBB625:
.LBB626:
	.loc 2 116 0
	in r25,__SREG__
.LVL96:
.LBB627:
.LBB628:
	.loc 2 105 0
/* #APP */
 ;  105 "C:\TMP_WO~1\lab2_v2\erika\src\ee_hal_internal.h" 1
	cli
 ;  0 "" 2
.LVL97:
/* #NOAPP */
.LBE628:
.LBE627:
.LBE626:
.LBE625:
.LBE624:
.LBE623:
	.loc 1 1277 0
	ldd r18,Z+8
	ldd r19,Z+9
.LVL98:
	.loc 1 1305 0
	subi r18,1
	sbc r19,__zero_reg__
.LVL99:
	cpi r18,2
	cpc r19,__zero_reg__
	brsh .L69
.LVL100:
.LBB629:
.LBB630:
	.loc 3 694 0
	ldi r24,lo8(3)
	ldi r25,0
.LVL101:
	std Z+9,r25
	std Z+8,r24
	.loc 3 696 0
	std Z+12,r21
	std Z+11,r20
.LBB631:
.LBB632:
	.loc 2 105 0
/* #APP */
 ;  105 "C:\TMP_WO~1\lab2_v2\erika\src\ee_hal_internal.h" 1
	cli
 ;  0 "" 2
/* #NOAPP */
.L70:
	rjmp .L70
.LVL102:
.L69:
.LBE632:
.LBE631:
.LBE630:
.LBE629:
.LBB633:
.LBB634:
.LBB635:
.LBB636:
	.loc 2 123 0
	.loc 2 124 0
	out __SREG__,r25
.LVL103:
.LBE636:
.LBE635:
.LBE634:
.LBE633:
	.loc 1 1327 0
	ldi r24,lo8(7)
	ldi r25,0
/* epilogue start */
	ret
	.cfi_endproc
.LFE76:
	.size	ShutdownOS, .-ShutdownOS
	.section	.text.GetTaskID,"ax",@progbits
.global	GetTaskID
	.type	GetTaskID, @function
GetTaskID:
.LFB77:
	.loc 1 1334 0
	.cfi_startproc
.LVL104:
	push r28
.LCFI30:
	.cfi_def_cfa_offset 3
	.cfi_offset 28, -2
	push r29
.LCFI31:
	.cfi_def_cfa_offset 4
	.cfi_offset 29, -3
/* prologue: function */
/* frame size = 0 */
/* stack size = 2 */
.L__stack_usage = 2
	movw r26,r24
	.loc 1 1343 0
	lds r30,osEE_cdb_var
	lds r31,osEE_cdb_var+1
.LVL105:
	.loc 1 1374 0
	ldi r24,lo8(14)
	ldi r25,0
.LVL106:
	.loc 1 1373 0
	sbiw r26,0
	breq .L71
.LVL107:
.LBB637:
	.loc 1 1379 0
	ld r28,Z
	ldd r29,Z+1
.LVL108:
	.loc 1 1389 0
	ldd r24,Y+7
	ldd r25,Y+8
	cpi r24,2
	cpc r25,__zero_reg__
	brsh .L73
.LVL109:
.L80:
.LBB638:
.LBB639:
	.loc 1 1402 0
	ldd r25,Y+6
.LVL110:
.L74:
.LBE639:
.LBE638:
	.loc 1 1413 0
	st X,r25
.LVL111:
	.loc 1 1414 0
	ldi r25,0
.LVL112:
	ldi r24,0
.LVL113:
.L71:
/* epilogue start */
.LBE637:
	.loc 1 1431 0
	pop r29
	pop r28
	ret
.LVL114:
.L73:
.LBB644:
	.loc 1 1392 0
	sbiw r24,2
	brne .L79
.LBB642:
	.loc 1 1396 0
	ldd __tmp_reg__,Z+6
	ldd r31,Z+7
	mov r30,__tmp_reg__
.LVL115:
.L76:
.LBB640:
	.loc 1 1405 0
	ld __tmp_reg__,Z+
	ld r31,Z
	mov r30,__tmp_reg__
.LVL116:
.LBE640:
	.loc 1 1398 0
	sbiw r30,0
	brne .L77
.LVL117:
.L79:
.LBE642:
	.loc 1 1377 0
	ldi r25,lo8(-1)
	rjmp .L74
.LVL118:
.L77:
.LBB643:
.LBB641:
	.loc 1 1400 0
	ldd r28,Z+2
	ldd r29,Z+3
.LVL119:
	.loc 1 1401 0
	ldd r24,Y+7
	ldd r25,Y+8
	sbiw r24,2
	brsh .L76
	rjmp .L80
.LBE641:
.LBE643:
.LBE644:
	.cfi_endproc
.LFE77:
	.size	GetTaskID, .-GetTaskID
	.section	.text.GetTaskState,"ax",@progbits
.global	GetTaskState
	.type	GetTaskState, @function
GetTaskState:
.LFB78:
	.loc 1 1439 0
	.cfi_startproc
.LVL120:
	push r28
.LCFI32:
	.cfi_def_cfa_offset 3
	.cfi_offset 28, -2
	push r29
.LCFI33:
	.cfi_def_cfa_offset 4
	.cfi_offset 29, -3
/* prologue: function */
/* frame size = 0 */
/* stack size = 2 */
.L__stack_usage = 2
	movw r30,r22
.LVL121:
	.loc 1 1479 0
	sbiw r30,0
	breq .L88
.LVL122:
.LBB645:
.LBB646:
	.loc 3 276 0
	ldi r25,0
.LBE646:
.LBE645:
	.loc 1 1482 0
	lds r18,osEE_kdb_var+4
	lds r19,osEE_kdb_var+4+1
	cp r24,r18
	cpc r25,r19
	brsh .L89
.LVL123:
.LBB647:
	.loc 1 1487 0
	lds r18,osEE_kdb_var+2
	lds r19,osEE_kdb_var+2+1
	lsl r24
	rol r25
.LVL124:
	add r24,r18
	adc r25,r19
	.loc 1 1490 0
	movw r28,r24
	ld r26,Y
	ldd r27,Y+1
	adiw r26,4
	ld __tmp_reg__,X+
	ld r27,X
	mov r26,__tmp_reg__
	.loc 1 1491 0
	adiw r26,2
	ld r24,X+
	ld r25,X
	cpi r24,3
	cpc r25,__zero_reg__
	brsh .L83
	sbiw r24,1
	brlo .L91
	.loc 1 1497 0
	ldi r24,lo8(1)
	ldi r25,0
.L93:
	.loc 1 1504 0
	std Z+1,r25
	st Z,r24
	rjmp .L90
.L83:
	.loc 1 1491 0
	cpi r24,3
	cpc r25,__zero_reg__
	breq .L93
	sbiw r24,6
	brlo .L92
.L90:
	.loc 1 1511 0
	ldi r25,0
	ldi r24,0
.LVL125:
.LBE647:
	.loc 1 1528 0
	rjmp .L81
.LVL126:
.L91:
.LBB648:
	.loc 1 1493 0
	std Z+1,__zero_reg__
	st Z,__zero_reg__
	rjmp .L90
.L92:
	.loc 1 1504 0
	ldi r24,lo8(4)
	ldi r25,0
	rjmp .L93
.LVL127:
.L88:
.LBE648:
	.loc 1 1480 0
	ldi r24,lo8(14)
	ldi r25,0
.LVL128:
.L81:
/* epilogue start */
	.loc 1 1529 0
	pop r29
	pop r28
	ret
.LVL129:
.L89:
	.loc 1 1483 0
	ldi r24,lo8(3)
	ldi r25,0
.LVL130:
	rjmp .L81
	.cfi_endproc
.LFE78:
	.size	GetTaskState, .-GetTaskState
	.section	.text.SetRelAlarm,"ax",@progbits
.global	SetRelAlarm
	.type	SetRelAlarm, @function
SetRelAlarm:
.LFB79:
	.loc 1 1539 0
	.cfi_startproc
.LVL131:
	push r28
.LCFI34:
	.cfi_def_cfa_offset 3
	.cfi_offset 28, -2
/* prologue: function */
/* frame size = 0 */
/* stack size = 1 */
.L__stack_usage = 1
.LVL132:
.LBB649:
.LBB650:
	.loc 3 868 0
	ldi r25,0
.LBE650:
.LBE649:
	.loc 1 1575 0
	lds r18,osEE_kdb_var+12
	lds r19,osEE_kdb_var+12+1
	cp r24,r18
	cpc r25,r19
	brsh .L96
	movw r18,r20
	movw r20,r22
.LVL133:
.LBB651:
	.loc 1 1580 0
	lds r30,osEE_kdb_var+10
	lds r31,osEE_kdb_var+10+1
	lsl r24
	rol r25
.LVL134:
	add r30,r24
	adc r31,r25
	ld r22,Z
	ldd r23,Z+1
.LVL135:
	.loc 1 1582 0
	movw r30,r22
	ldd r24,Z+2
	ldd r25,Z+3
.LVL136:
.LBB652:
.LBB653:
.LBB654:
.LBB655:
.LBB656:
	.loc 2 116 0
	in r28,__SREG__
.LVL137:
.LBB657:
.LBB658:
	.loc 2 105 0
/* #APP */
 ;  105 "C:\TMP_WO~1\lab2_v2\erika\src\ee_hal_internal.h" 1
	cli
 ;  0 "" 2
.LVL138:
/* #NOAPP */
.LBE658:
.LBE657:
.LBE656:
.LBE655:
.LBE654:
.LBE653:
	.loc 1 1599 0
	call osEE_alarm_set_rel
.LVL139:
.LBB659:
.LBB660:
.LBB661:
.LBB662:
	.loc 2 123 0
	.loc 2 124 0
	out __SREG__,r28
.LVL140:
.L94:
/* epilogue start */
.LBE662:
.LBE661:
.LBE660:
.LBE659:
.LBE652:
.LBE651:
	.loc 1 1621 0
	pop r28
	ret
.LVL141:
.L96:
	.loc 1 1576 0
	ldi r24,lo8(3)
	ldi r25,0
.LVL142:
	.loc 1 1620 0
	rjmp .L94
	.cfi_endproc
.LFE79:
	.size	SetRelAlarm, .-SetRelAlarm
	.section	.text.SetAbsAlarm,"ax",@progbits
.global	SetAbsAlarm
	.type	SetAbsAlarm, @function
SetAbsAlarm:
.LFB80:
	.loc 1 1630 0
	.cfi_startproc
.LVL143:
	push r28
.LCFI35:
	.cfi_def_cfa_offset 3
	.cfi_offset 28, -2
/* prologue: function */
/* frame size = 0 */
/* stack size = 1 */
.L__stack_usage = 1
.LVL144:
.LBB663:
.LBB664:
	.loc 3 868 0
	ldi r25,0
.LBE664:
.LBE663:
	.loc 1 1666 0
	lds r18,osEE_kdb_var+12
	lds r19,osEE_kdb_var+12+1
	cp r24,r18
	cpc r25,r19
	brsh .L99
	movw r18,r20
	movw r20,r22
.LVL145:
.LBB665:
	.loc 1 1671 0
	lds r30,osEE_kdb_var+10
	lds r31,osEE_kdb_var+10+1
	lsl r24
	rol r25
.LVL146:
	add r30,r24
	adc r31,r25
	ld r22,Z
	ldd r23,Z+1
.LVL147:
	.loc 1 1673 0
	movw r30,r22
	ldd r24,Z+2
	ldd r25,Z+3
.LVL148:
.LBB666:
.LBB667:
.LBB668:
.LBB669:
.LBB670:
	.loc 2 116 0
	in r28,__SREG__
.LVL149:
.LBB671:
.LBB672:
	.loc 2 105 0
/* #APP */
 ;  105 "C:\TMP_WO~1\lab2_v2\erika\src\ee_hal_internal.h" 1
	cli
 ;  0 "" 2
.LVL150:
/* #NOAPP */
.LBE672:
.LBE671:
.LBE670:
.LBE669:
.LBE668:
.LBE667:
	.loc 1 1689 0
	call osEE_alarm_set_abs
.LVL151:
.LBB673:
.LBB674:
.LBB675:
.LBB676:
	.loc 2 123 0
	.loc 2 124 0
	out __SREG__,r28
.LVL152:
.L97:
/* epilogue start */
.LBE676:
.LBE675:
.LBE674:
.LBE673:
.LBE666:
.LBE665:
	.loc 1 1711 0
	pop r28
	ret
.LVL153:
.L99:
	.loc 1 1667 0
	ldi r24,lo8(3)
	ldi r25,0
.LVL154:
	.loc 1 1710 0
	rjmp .L97
	.cfi_endproc
.LFE80:
	.size	SetAbsAlarm, .-SetAbsAlarm
	.section	.text.CancelAlarm,"ax",@progbits
.global	CancelAlarm
	.type	CancelAlarm, @function
CancelAlarm:
.LFB81:
	.loc 1 1718 0
	.cfi_startproc
.LVL155:
	push r28
.LCFI36:
	.cfi_def_cfa_offset 3
	.cfi_offset 28, -2
/* prologue: function */
/* frame size = 0 */
/* stack size = 1 */
.L__stack_usage = 1
.LVL156:
.LBB677:
.LBB678:
	.loc 3 868 0
	ldi r25,0
.LBE678:
.LBE677:
	.loc 1 1754 0
	lds r18,osEE_kdb_var+12
	lds r19,osEE_kdb_var+12+1
	cp r24,r18
	cpc r25,r19
	brsh .L102
.LBB679:
	.loc 1 1758 0
	lds r18,osEE_kdb_var+10
	lds r19,osEE_kdb_var+10+1
	lsl r24
	rol r25
.LVL157:
	add r24,r18
	adc r25,r19
	movw r30,r24
	ld r24,Z
	ldd r25,Z+1
.LVL158:
.LBB680:
.LBB681:
.LBB682:
.LBB683:
	.loc 2 116 0
	in r28,__SREG__
.LVL159:
.LBB684:
.LBB685:
	.loc 2 105 0
/* #APP */
 ;  105 "C:\TMP_WO~1\lab2_v2\erika\src\ee_hal_internal.h" 1
	cli
 ;  0 "" 2
.LVL160:
/* #NOAPP */
.LBE685:
.LBE684:
.LBE683:
.LBE682:
.LBE681:
.LBE680:
	.loc 1 1762 0
	call osEE_alarm_cancel
.LVL161:
.LBB686:
.LBB687:
.LBB688:
.LBB689:
	.loc 2 123 0
	.loc 2 124 0
	out __SREG__,r28
.LVL162:
.L100:
/* epilogue start */
.LBE689:
.LBE688:
.LBE687:
.LBE686:
.LBE679:
	.loc 1 1781 0
	pop r28
	ret
.LVL163:
.L102:
	.loc 1 1755 0
	ldi r24,lo8(3)
	ldi r25,0
.LVL164:
	.loc 1 1780 0
	rjmp .L100
	.cfi_endproc
.LFE81:
	.size	CancelAlarm, .-CancelAlarm
	.section	.text.GetAlarm,"ax",@progbits
.global	GetAlarm
	.type	GetAlarm, @function
GetAlarm:
.LFB82:
	.loc 1 1789 0
	.cfi_startproc
.LVL165:
	push r28
.LCFI37:
	.cfi_def_cfa_offset 3
	.cfi_offset 28, -2
/* prologue: function */
/* frame size = 0 */
/* stack size = 1 */
.L__stack_usage = 1
.LVL166:
.LBB690:
.LBB691:
	.loc 3 868 0
	ldi r25,0
.LBE691:
.LBE690:
	.loc 1 1825 0
	lds r18,osEE_kdb_var+12
	lds r19,osEE_kdb_var+12+1
	cp r24,r18
	cpc r25,r19
	brsh .L105
	.loc 1 1828 0
	cp r22,__zero_reg__
	cpc r23,__zero_reg__
	breq .L106
.LBB692:
	.loc 1 1833 0
	lds r18,osEE_kdb_var+10
	lds r19,osEE_kdb_var+10+1
	lsl r24
	rol r25
.LVL167:
	add r24,r18
	adc r25,r19
	movw r30,r24
	ld r24,Z
	ldd r25,Z+1
.LVL168:
.LBB693:
.LBB694:
.LBB695:
.LBB696:
	.loc 2 116 0
	in r28,__SREG__
.LVL169:
.LBB697:
.LBB698:
	.loc 2 105 0
/* #APP */
 ;  105 "C:\TMP_WO~1\lab2_v2\erika\src\ee_hal_internal.h" 1
	cli
 ;  0 "" 2
.LVL170:
/* #NOAPP */
.LBE698:
.LBE697:
.LBE696:
.LBE695:
.LBE694:
.LBE693:
	.loc 1 1837 0
	call osEE_alarm_get
.LVL171:
.LBB699:
.LBB700:
.LBB701:
.LBB702:
	.loc 2 123 0
	.loc 2 124 0
	out __SREG__,r28
.LVL172:
.L103:
/* epilogue start */
.LBE702:
.LBE701:
.LBE700:
.LBE699:
.LBE692:
	.loc 1 1857 0
	pop r28
	ret
.LVL173:
.L105:
	.loc 1 1826 0
	ldi r24,lo8(3)
	ldi r25,0
.LVL174:
	rjmp .L103
.LVL175:
.L106:
	.loc 1 1829 0
	ldi r24,lo8(14)
	ldi r25,0
.LVL176:
	.loc 1 1856 0
	rjmp .L103
	.cfi_endproc
.LFE82:
	.size	GetAlarm, .-GetAlarm
	.section	.text.GetAlarmBase,"ax",@progbits
.global	GetAlarmBase
	.type	GetAlarmBase, @function
GetAlarmBase:
.LFB83:
	.loc 1 1865 0
	.cfi_startproc
.LVL177:
/* prologue: function */
/* frame size = 0 */
/* stack size = 0 */
.L__stack_usage = 0
.LBB703:
.LBB704:
	.loc 3 868 0
	ldi r25,0
.LBE704:
.LBE703:
	.loc 1 1901 0
	lds r18,osEE_kdb_var+12
	lds r19,osEE_kdb_var+12+1
	cp r24,r18
	cpc r25,r19
	brsh .L109
	.loc 1 1904 0
	cp r22,__zero_reg__
	cpc r23,__zero_reg__
	breq .L110
.LVL178:
.LBB705:
	.loc 1 1909 0
	lds r18,osEE_kdb_var+10
	lds r19,osEE_kdb_var+10+1
	lsl r24
	rol r25
.LVL179:
	add r24,r18
	adc r25,r19
	.loc 1 1913 0
	movw r26,r24
	ld r30,X+
	ld r31,X
	.loc 1 1915 0
	ldd __tmp_reg__,Z+2
	ldd r31,Z+3
	mov r30,__tmp_reg__
	ldd r24,Z+2
	ldd r25,Z+3
	ldd r26,Z+4
	ldd r27,Z+5
	movw r30,r22
	st Z,r24
	std Z+1,r25
	std Z+2,r26
	std Z+3,r27
.LVL180:
	.loc 1 1917 0
	ldi r25,0
	ldi r24,0
	ret
.LVL181:
.L109:
.LBE705:
	.loc 1 1902 0
	ldi r24,lo8(3)
	ldi r25,0
.LVL182:
	ret
.LVL183:
.L110:
	.loc 1 1905 0
	ldi r24,lo8(14)
	ldi r25,0
.LVL184:
/* epilogue start */
	.loc 1 1935 0
	ret
	.cfi_endproc
.LFE83:
	.size	GetAlarmBase, .-GetAlarmBase
	.section	.text.GetCounterValue,"ax",@progbits
.global	GetCounterValue
	.type	GetCounterValue, @function
GetCounterValue:
.LFB84:
	.loc 1 2336 0
	.cfi_startproc
.LVL185:
/* prologue: function */
/* frame size = 0 */
/* stack size = 0 */
.L__stack_usage = 0
.LBB706:
.LBB707:
	.loc 3 744 0
	ldi r25,0
.LBE707:
.LBE706:
	.loc 1 2374 0
	lds r18,osEE_kdb_var+8
	lds r19,osEE_kdb_var+8+1
	cp r24,r18
	cpc r25,r19
	brsh .L113
	.loc 1 2377 0
	cp r22,__zero_reg__
	cpc r23,__zero_reg__
	breq .L114
.LBB708:
	.loc 1 2382 0
	lds r18,osEE_kdb_var+6
	lds r19,osEE_kdb_var+6+1
	lsl r24
	rol r25
.LVL186:
	add r24,r18
	adc r25,r19
	.loc 1 2407 0
	movw r26,r24
	ld r30,X+
	ld r31,X
	ld __tmp_reg__,Z+
	ld r31,Z
	mov r30,__tmp_reg__
	ldd r24,Z+2
	ldd r25,Z+3
	movw r30,r22
	std Z+1,r25
	st Z,r24
.LVL187:
	.loc 1 2409 0
	ldi r25,0
	ldi r24,0
	ret
.LVL188:
.L113:
.LBE708:
	.loc 1 2375 0
	ldi r24,lo8(3)
	ldi r25,0
.LVL189:
	ret
.LVL190:
.L114:
	.loc 1 2378 0
	ldi r24,lo8(14)
	ldi r25,0
.LVL191:
/* epilogue start */
	.loc 1 2428 0
	ret
	.cfi_endproc
.LFE84:
	.size	GetCounterValue, .-GetCounterValue
	.section	.text.GetElapsedValue,"ax",@progbits
.global	GetElapsedValue
	.type	GetElapsedValue, @function
GetElapsedValue:
.LFB85:
	.loc 1 2437 0
	.cfi_startproc
.LVL192:
	push r28
.LCFI38:
	.cfi_def_cfa_offset 3
	.cfi_offset 28, -2
	push r29
.LCFI39:
	.cfi_def_cfa_offset 4
	.cfi_offset 29, -3
/* prologue: function */
/* frame size = 0 */
/* stack size = 2 */
.L__stack_usage = 2
.LVL193:
.LBB709:
.LBB710:
	.loc 3 744 0
	ldi r25,0
.LBE710:
.LBE709:
	.loc 1 2474 0
	lds r18,osEE_kdb_var+8
	lds r19,osEE_kdb_var+8+1
	cp r24,r18
	cpc r25,r19
	brsh .L119
	.loc 1 2477 0
	cp r22,__zero_reg__
	cpc r23,__zero_reg__
	breq .L121
	.loc 1 2477 0 discriminator 1
	cp r20,__zero_reg__
	cpc r21,__zero_reg__
	breq .L121
.LBB711:
	.loc 1 2482 0
	lds r18,osEE_kdb_var+6
	lds r19,osEE_kdb_var+6+1
	lsl r24
	rol r25
.LVL194:
	add r24,r18
	adc r25,r19
	movw r28,r24
	ld r26,Y
	ldd r27,Y+1
.LVL195:
	.loc 1 2484 0
	movw r28,r22
	ld r30,Y
	ldd r31,Y+1
.LVL196:
.LBB712:
	.loc 1 2509 0
	ld r28,X+
	ld r29,X
	sbiw r26,1
	ldd r18,Y+2
	ldd r19,Y+3
.LVL197:
	.loc 1 2517 0
	movw r24,r18
	sub r24,r30
	sbc r25,r31
	cp r18,r30
	cpc r19,r31
	brsh .L118
	.loc 1 2517 0 is_stmt 0 discriminator 2
	ldi r24,lo8(1)
	ldi r25,0
	sub r24,r30
	sbc r25,r31
	adiw r26,2
	ld r30,X+
	ld r31,X
.LVL198:
	add r24,r30
	adc r25,r31
	add r24,r18
	adc r25,r19
.L118:
	.loc 1 2515 0 is_stmt 1
	movw r30,r20
	std Z+1,r25
	st Z,r24
.LVL199:
	.loc 1 2524 0
	movw r28,r22
	std Y+1,r19
	st Y,r18
.LVL200:
	.loc 1 2526 0
	ldi r25,0
	ldi r24,0
.LVL201:
.L115:
/* epilogue start */
.LBE712:
.LBE711:
	.loc 1 2546 0
	pop r29
	pop r28
	ret
.LVL202:
.L119:
	.loc 1 2475 0
	ldi r24,lo8(3)
	ldi r25,0
.LVL203:
	rjmp .L115
.LVL204:
.L121:
	.loc 1 2478 0
	ldi r24,lo8(14)
	ldi r25,0
.LVL205:
	.loc 1 2545 0
	rjmp .L115
	.cfi_endproc
.LFE85:
	.size	GetElapsedValue, .-GetElapsedValue
	.section	.text.IncrementCounter,"ax",@progbits
.global	IncrementCounter
	.type	IncrementCounter, @function
IncrementCounter:
.LFB86:
	.loc 1 2553 0
	.cfi_startproc
.LVL206:
	push r28
.LCFI40:
	.cfi_def_cfa_offset 3
	.cfi_offset 28, -2
/* prologue: function */
/* frame size = 0 */
/* stack size = 1 */
.L__stack_usage = 1
.LVL207:
.LBB713:
.LBB714:
	.loc 3 744 0
	ldi r25,0
.LBE714:
.LBE713:
	.loc 1 2592 0
	lds r18,osEE_kdb_var+8
	lds r19,osEE_kdb_var+8+1
	cp r24,r18
	cpc r25,r19
	brsh .L125
.LBB715:
	.loc 1 2597 0
	lds r18,osEE_kdb_var+6
	lds r19,osEE_kdb_var+6+1
	lsl r24
	rol r25
.LVL208:
	add r24,r18
	adc r25,r19
	movw r30,r24
	ld r24,Z
	ldd r25,Z+1
.LVL209:
.LBB716:
.LBB717:
.LBB718:
.LBB719:
.LBB720:
	.loc 2 116 0
	in r28,__SREG__
.LVL210:
.LBB721:
.LBB722:
	.loc 2 105 0
/* #APP */
 ;  105 "C:\TMP_WO~1\lab2_v2\erika\src\ee_hal_internal.h" 1
	cli
 ;  0 "" 2
.LVL211:
/* #NOAPP */
.LBE722:
.LBE721:
.LBE720:
.LBE719:
.LBE718:
.LBE717:
	.loc 1 2622 0
	call osEE_counter_increment
.LVL212:
.LBB723:
.LBB724:
	.loc 3 172 0
	lds r30,osEE_cdb_var
	lds r31,osEE_cdb_var+1
.LBE724:
.LBE723:
	.loc 1 2626 0
	ld __tmp_reg__,Z+
	ld r31,Z
	mov r30,__tmp_reg__
	ldd r24,Z+7
	ldd r25,Z+8
	sbiw r24,2
	brsh .L124
	.loc 1 2627 0
	ldi r24,lo8(osEE_kdb_var)
	ldi r25,hi8(osEE_kdb_var)
	call osEE_scheduler_task_preemption_point
.LVL213:
.L124:
.LBB725:
.LBB726:
.LBB727:
.LBB728:
	.loc 2 123 0
	.loc 2 124 0
	out __SREG__,r28
.LVL214:
.LBE728:
.LBE727:
.LBE726:
.LBE725:
	.loc 1 2632 0
	ldi r25,0
	ldi r24,0
.LVL215:
.L122:
/* epilogue start */
.LBE716:
.LBE715:
	.loc 1 2650 0
	pop r28
	ret
.LVL216:
.L125:
	.loc 1 2593 0
	ldi r24,lo8(3)
	ldi r25,0
.LVL217:
	.loc 1 2649 0
	rjmp .L122
	.cfi_endproc
.LFE86:
	.size	IncrementCounter, .-IncrementCounter
	.section	.text.GetISRID,"ax",@progbits
.global	GetISRID
	.type	GetISRID, @function
GetISRID:
.LFB87:
	.loc 1 3316 0
	.cfi_startproc
/* prologue: function */
/* frame size = 0 */
/* stack size = 0 */
.L__stack_usage = 0
.LBB729:
.LBB730:
	.loc 3 172 0
	lds r30,osEE_cdb_var
	lds r31,osEE_cdb_var+1
	ld __tmp_reg__,Z+
	ld r31,Z
	mov r30,__tmp_reg__
.LBE730:
.LBE729:
	.loc 1 3321 0
	ldd r24,Z+7
	ldd r25,Z+8
	sbiw r24,2
	brne .L128
	.loc 1 3322 0
	ldd r24,Z+6
.LVL218:
	ret
.LVL219:
.L128:
	.loc 1 3324 0
	ldi r24,lo8(-1)
.LVL220:
/* epilogue start */
	.loc 1 3328 0
	ret
	.cfi_endproc
.LFE87:
	.size	GetISRID, .-GetISRID
	.text
.Letext0:
	.file 5 "c:\\progra~2\\arduino\\hardware\\tools\\avr\\avr\\include\\stdint.h"
	.file 6 "C:\\TMP_WO~1\\lab2_v2\\erika\\inc/ee_platform_types.h"
	.file 7 "C:\\TMP_WO~1\\lab2_v2\\erika\\inc/ee_api_types.h"
	.file 8 "C:\\TMP_WO~1\\lab2_v2\\erika\\inc/ee_scheduler_types.h"
	.file 9 "C:\\TMP_WO~1\\lab2_v2\\erika\\inc/ee_kernel_types.h"
	.file 10 "C:\\TMP_WO~1\\lab2_v2\\erika\\inc/ee_hal_internal_types.h"
	.file 11 "C:\\TMP_WO~1\\lab2_v2\\erika\\inc/ee_get_kernel_and_core.h"
	.file 12 "C:\\TMP_WO~1\\lab2_v2\\erika\\src\\ee_scheduler.h"