	.file	"ee_oo_counter.c"
__SP_H__ = 0x3e
__SP_L__ = 0x3d
__SREG__ = 0x3f
__tmp_reg__ = 0
__zero_reg__ = 1
	.text
.Ltext0:
	.cfi_sections	.debug_frame
	.section	.text.osEE_counter_insert_abs_trigger,"ax",@progbits
.global	osEE_counter_insert_abs_trigger
	.type	osEE_counter_insert_abs_trigger, @function
osEE_counter_insert_abs_trigger:
.LFB64:
	.file 1 "C:\\TMP_WO~1\\lab2_v2\\erika\\src\\ee_oo_counter.c"
	.loc 1 75 0
	.cfi_startproc
.LVL0:
	push r10
.LCFI0:
	.cfi_def_cfa_offset 3
	.cfi_offset 10, -2
	push r11
.LCFI1:
	.cfi_def_cfa_offset 4
	.cfi_offset 11, -3
	push r12
.LCFI2:
	.cfi_def_cfa_offset 5
	.cfi_offset 12, -4
	push r13
.LCFI3:
	.cfi_def_cfa_offset 6
	.cfi_offset 13, -5
	push r14
.LCFI4:
	.cfi_def_cfa_offset 7
	.cfi_offset 14, -6
	push r15
.LCFI5:
	.cfi_def_cfa_offset 8
	.cfi_offset 15, -7
	push r16
.LCFI6:
	.cfi_def_cfa_offset 9
	.cfi_offset 16, -8
	push r17
.LCFI7:
	.cfi_def_cfa_offset 10
	.cfi_offset 17, -9
	push r28
.LCFI8:
	.cfi_def_cfa_offset 11
	.cfi_offset 28, -10
	push r29
.LCFI9:
	.cfi_def_cfa_offset 12
	.cfi_offset 29, -11
/* prologue: function */
/* frame size = 0 */
/* stack size = 10 */
.L__stack_usage = 10
	.loc 1 77 0
	movw r26,r24
	ld r10,X+
	ld r11,X
.LVL1:
	.loc 1 81 0
	movw r28,r10
	ld r30,Y
	ldd r31,Y+1
.LVL2:
	.loc 1 83 0
	ldd r18,Y+2
	ldd r19,Y+3
.LVL3:
	.loc 1 88 0
	movw r26,r22
	ld r12,X+
	ld r13,X
	movw r28,r12
	std Y+3,r21
	std Y+2,r20
	.loc 1 85 0
	ldi r24,lo8(1)
	ldi r25,0
.LVL4:
	.loc 1 79 0
	ldi r27,0
	ldi r26,0
.LVL5:
.L2:
	.loc 1 90 0
	sbiw r30,0
	breq .L6
	.loc 1 90 0 discriminator 1
	sbiw r24,0
	brne .L7
.L6:
	.loc 1 117 0
	sbiw r26,0
	breq .L8
	.loc 1 118 0
	ld __tmp_reg__,X+
	ld r27,X
	mov r26,__tmp_reg__
.LVL6:
.L17:
	.loc 1 120 0
	st X+,r22
	st X,r23
	.loc 1 123 0
	movw r28,r12
	std Y+1,r31
	st Y,r30
/* epilogue start */
	.loc 1 124 0
	pop r29
	pop r28
	pop r17
	pop r16
	pop r15
	pop r14
	pop r13
	pop r12
	pop r11
	pop r10
.LVL7:
	ret
.LVL8:
.L7:
.LBB34:
	.loc 1 91 0
	ld r16,Z
	ldd r17,Z+1
	movw r28,r16
	ldd r14,Y+2
	ldd r15,Y+3
.LVL9:
	.loc 1 93 0
	cp r18,r14
	cpc r19,r15
	brsh .L3
	.loc 1 95 0
	cp r20,r14
	cpc r21,r15
	brsh .L16
	.loc 1 95 0 is_stmt 0 discriminator 1
	cp r18,r20
	cpc r19,r21
	brlo .L12
.L16:
.LVL10:
	.loc 1 110 0 is_stmt 1
	movw r26,r30
	movw r28,r16
	ld r30,Y
	ldd r31,Y+1
.LVL11:
	rjmp .L2
.LVL12:
.L3:
	.loc 1 105 0
	cp r18,r20
	cpc r19,r21
	brlo .L12
	.loc 1 105 0 is_stmt 0 discriminator 1
	cp r20,r14
	cpc r21,r15
	brsh .L16
.L12:
	.loc 1 112 0 is_stmt 1
	ldi r25,0
	ldi r24,0
.LVL13:
	rjmp .L2
.LVL14:
.L8:
.LBE34:
	.loc 1 120 0
	movw r26,r10
.LVL15:
	rjmp .L17
	.cfi_endproc
.LFE64:
	.size	osEE_counter_insert_abs_trigger, .-osEE_counter_insert_abs_trigger
	.section	.text.osEE_counter_insert_rel_trigger,"ax",@progbits
.global	osEE_counter_insert_rel_trigger
	.type	osEE_counter_insert_rel_trigger, @function
osEE_counter_insert_rel_trigger:
.LFB63:
	.loc 1 63 0
	.cfi_startproc
.LVL16:
	push r28
.LCFI10:
	.cfi_def_cfa_offset 3
	.cfi_offset 28, -2
	push r29
.LCFI11:
	.cfi_def_cfa_offset 4
	.cfi_offset 29, -3
/* prologue: function */
/* frame size = 0 */
/* stack size = 2 */
.L__stack_usage = 2
.LVL17:
.LBB37:
.LBB38:
	.file 2 "C:\\TMP_WO~1\\lab2_v2\\erika\\src\\ee_kernel.h"
	.loc 2 789 0
	movw r26,r24
	adiw r26,2
	ld r30,X+
	ld r31,X
	sbiw r26,2+1
.LVL18:
	.loc 2 791 0
	ld __tmp_reg__,X+
	ld r27,X
	mov r26,__tmp_reg__
	adiw r26,2
	ld r18,X+
	ld r19,X
.LVL19:
	.loc 2 793 0
	movw r26,r30
	sub r26,r20
	sbc r27,r21
	cp r26,r18
	cpc r27,r19
	brlo .L19
	.loc 2 794 0
	add r20,r18
	adc r21,r19
.LVL20:
.L20:
/* epilogue start */
.LBE38:
.LBE37:
	.loc 1 66 0
	pop r29
	pop r28
	.loc 1 64 0
	jmp osEE_counter_insert_abs_trigger
.LVL21:
.L19:
.LBB40:
.LBB39:
	.loc 2 796 0
	subi r20,1
	sbc r21,__zero_reg__
.LVL22:
	add r20,r18
	adc r21,r19
.LVL23:
	sub r20,r30
	sbc r21,r31
.LVL24:
	rjmp .L20
.LBE39:
.LBE40:
	.cfi_endproc
.LFE63:
	.size	osEE_counter_insert_rel_trigger, .-osEE_counter_insert_rel_trigger
	.section	.text.osEE_counter_cancel_trigger,"ax",@progbits
.global	osEE_counter_cancel_trigger
	.type	osEE_counter_cancel_trigger, @function
osEE_counter_cancel_trigger:
.LFB65:
	.loc 1 132 0
	.cfi_startproc
.LVL25:
	push r28
.LCFI12:
	.cfi_def_cfa_offset 3
	.cfi_offset 28, -2
	push r29
.LCFI13:
	.cfi_def_cfa_offset 4
	.cfi_offset 29, -3
/* prologue: function */
/* frame size = 0 */
/* stack size = 2 */
.L__stack_usage = 2
	.loc 1 134 0
	movw r30,r24
	ld r26,Z
	ldd r27,Z+1
.LVL26:
	.loc 1 136 0
	movw r30,r22
	ld r28,Z
	ldd r29,Z+1
.LVL27:
	.loc 1 138 0
	ld r30,X+
	ld r31,X
	sbiw r26,1
.LVL28:
.L32:
.LBB41:
	.loc 1 148 0 discriminator 1
	cp r22,r30
	cpc r23,r31
	brne .L22
	.loc 1 152 0
	ld r24,Y
	ldd r25,Y+1
.LVL29:
	st X+,r24
	st X,r25
	rjmp .L21
.LVL30:
.L22:
	.loc 1 147 0 discriminator 2
	ld r26,Z
	ldd r27,Z+1
	ld r30,X+
	ld r31,X
	sbiw r26,1
.LVL31:
	.loc 1 148 0 discriminator 2
	sbiw r30,0
	brne .L32
.LVL32:
.L21:
/* epilogue start */
.LBE41:
	.loc 1 155 0
	pop r29
	pop r28
.LVL33:
	ret
	.cfi_endproc
.LFE65:
	.size	osEE_counter_cancel_trigger, .-osEE_counter_cancel_trigger
	.section	.text.osEE_counter_increment,"ax",@progbits
.global	osEE_counter_increment
	.type	osEE_counter_increment, @function
osEE_counter_increment:
.LFB68:
	.loc 1 469 0
	.cfi_startproc
.LVL34:
	push r10
.LCFI14:
	.cfi_def_cfa_offset 3
	.cfi_offset 10, -2
	push r11
.LCFI15:
	.cfi_def_cfa_offset 4
	.cfi_offset 11, -3
	push r12
.LCFI16:
	.cfi_def_cfa_offset 5
	.cfi_offset 12, -4
	push r13
.LCFI17:
	.cfi_def_cfa_offset 6
	.cfi_offset 13, -5
	push r14
.LCFI18:
	.cfi_def_cfa_offset 7
	.cfi_offset 14, -6
	push r15
.LCFI19:
	.cfi_def_cfa_offset 8
	.cfi_offset 15, -7
	push r16
.LCFI20:
	.cfi_def_cfa_offset 9
	.cfi_offset 16, -8
	push r17
.LCFI21:
	.cfi_def_cfa_offset 10
	.cfi_offset 17, -9
	push r28
.LCFI22:
	.cfi_def_cfa_offset 11
	.cfi_offset 28, -10
	push r29
.LCFI23:
	.cfi_def_cfa_offset 12
	.cfi_offset 29, -11
/* prologue: function */
/* frame size = 0 */
/* stack size = 10 */
.L__stack_usage = 10
	.loc 1 471 0
	movw r26,r24
	ld r14,X+
	ld r15,X
	sbiw r26,1
.LVL35:
.LBB54:
	.loc 1 499 0
	movw r30,r14
	ldd r18,Z+2
	ldd r19,Z+3
	adiw r26,2
	ld r20,X+
	ld r21,X
	cp r18,r20
	cpc r19,r21
	brsh .+2
	rjmp .L34
.LVL36:
	.loc 1 501 0
	std Z+3,__zero_reg__
	std Z+2,__zero_reg__
	.loc 1 500 0
	ldi r19,0
	ldi r18,0
.LVL37:
.L35:
	.loc 1 515 0
	movw r30,r14
	ld r28,Z
	ldd r29,Z+1
.LVL38:
	.loc 1 517 0
	sbiw r28,0
	brne .+2
	rjmp .L33
.LVL39:
.LBB55:
	.loc 1 521 0
	ld r26,Y
	ldd r27,Y+1
	adiw r26,2
	ld r20,X+
	ld r21,X
	cp r20,r18
	cpc r21,r19
	breq .+2
	rjmp .L33
	movw r26,r28
.LBB56:
.LBB57:
	.loc 1 534 0
	ldi r16,lo8(3)
	ldi r17,0
.LVL40:
.L38:
	.loc 1 531 0
	ld r18,X+
	ld r19,X
.LVL41:
	.loc 1 534 0
	movw r26,r18
.LVL42:
	adiw r26,4+1
	st X,r17
	st -X,r16
	sbiw r26,4
.LVL43:
	.loc 1 535 0
	ld __tmp_reg__,X+
	ld r27,X
	mov r26,__tmp_reg__
.LBE57:
	.loc 1 537 0
	sbiw r26,0
	breq .L37
	.loc 1 537 0 is_stmt 0 discriminator 1
	ld r22,X+
	ld r23,X
	sbiw r26,1
	.loc 1 536 0 is_stmt 1 discriminator 1
	movw r30,r22
	ldd r22,Z+2
	ldd r23,Z+3
	cp r20,r22
	cpc r21,r23
	breq .L38
.L37:
	movw r16,r24
	.loc 1 540 0
	movw r30,r18
	std Z+1,__zero_reg__
	st Z,__zero_reg__
.LVL44:
	.loc 1 543 0
	movw r30,r14
	std Z+1,r27
	st Z,r26
.LVL45:
.LBB58:
.LBB59:
.LBB60:
.LBB61:
	.loc 1 264 0
	ldi r24,lo8(2)
	mov r14,r24
	mov r15,__zero_reg__
.LVL46:
.L45:
.LBE61:
.LBE60:
.LBE59:
	.loc 1 559 0 discriminator 1
	ld r30,Y
	ldd r31,Y+1
	ld r10,Z
	ldd r11,Z+1
.LVL47:
.LBB71:
.LBB69:
.LBB62:
.LBB63:
	.loc 1 165 0 discriminator 1
	ldd r24,Y+10
	ldd r25,Y+11
	cpi r24,2
	cpc r25,__zero_reg__
	breq .L40
	cpi r24,3
	cpc r25,__zero_reg__
	breq .L41
	or r24,r25
	brne .L39
.LBB64:
	.loc 1 169 0
	ldd r12,Y+6
	ldd r13,Y+7
.LVL48:
	.loc 1 171 0
	movw r24,r12
	call osEE_task_activated
.LVL49:
	.loc 1 172 0
	or r24,r25
	brne .L39
	.loc 1 173 0
	movw r22,r12
	ldi r24,lo8(osEE_kdb_var)
	ldi r25,hi8(osEE_kdb_var)
.LVL50:
	call osEE_scheduler_task_insert
.LVL51:
.L39:
.LBE64:
.LBE63:
.LBE62:
	.loc 1 255 0
	ld r30,Y
	ldd r31,Y+1
.LVL52:
	.loc 1 257 0
	ldd r24,Z+4
	ldd r25,Z+5
	sbiw r24,3
	brne .L43
.LVL53:
.LBB66:
	.loc 1 258 0
	ldd r20,Z+6
	ldd r21,Z+7
.LVL54:
	.loc 1 261 0
	cp r20,__zero_reg__
	cpc r21,__zero_reg__
	breq .L44
	.loc 1 264 0
	std Z+5,r15
	std Z+4,r14
	.loc 1 265 0
	movw r22,r28
	movw r24,r16
	call osEE_counter_insert_rel_trigger
.LVL55:
.L43:
	movw r28,r10
.LVL56:
.LBE66:
.LBE69:
.LBE71:
.LBE58:
	.loc 1 581 0 discriminator 1
	sbiw r28,0
	brne .L45
.LVL57:
.L33:
/* epilogue start */
.LBE56:
.LBE55:
.LBE54:
	.loc 1 589 0
	pop r29
	pop r28
	pop r17
	pop r16
	pop r15
	pop r14
	pop r13
	pop r12
	pop r11
	pop r10
	ret
.LVL58:
.L34:
.LBB76:
	.loc 1 503 0
	subi r18,-1
	sbci r19,-1
	std Z+3,r19
	std Z+2,r18
.LVL59:
	rjmp .L35
.LVL60:
.L40:
.LBB75:
.LBB74:
.LBB73:
.LBB72:
.LBB70:
.LBB67:
.LBB65:
	.loc 1 197 0
	ldd r24,Y+8
	ldd r25,Y+9
	call osEE_counter_increment
.LVL61:
	rjmp .L39
.L41:
	.loc 1 210 0
	ldd r30,Y+4
	ldd r31,Y+5
	icall
.LVL62:
	rjmp .L39
.LVL63:
.L44:
.LBE65:
.LBE67:
.LBB68:
	.loc 1 268 0
	std Z+5,__zero_reg__
	std Z+4,__zero_reg__
	rjmp .L43
.LBE68:
.LBE70:
.LBE72:
.LBE73:
.LBE74:
.LBE75:
.LBE76:
	.cfi_endproc
.LFE68:
	.size	osEE_counter_increment, .-osEE_counter_increment
	.text
.Letext0:
	.file 3 "c:\\progra~2\\arduino\\hardware\\tools\\avr\\avr\\include\\stdint.h"
	.file 4 "C:\\TMP_WO~1\\lab2_v2\\erika\\inc/ee_platform_types.h"
	.file 5 "C:\\TMP_WO~1\\lab2_v2\\erika\\inc/ee_api_types.h"
	.file 6 "C:\\TMP_WO~1\\lab2_v2\\erika\\inc/ee_scheduler_types.h"
	.file 7 "C:\\TMP_WO~1\\lab2_v2\\erika\\inc/ee_kernel_types.h"
	.file 8 "C:\\TMP_WO~1\\lab2_v2\\erika\\inc/ee_hal_internal_types.h"
	.file 9 "C:\\TMP_WO~1\\lab2_v2\\erika\\inc/ee_get_kernel_and_core.h"
	.file 10 "C:\\TMP_WO~1\\lab2_v2\\erika\\src\\ee_scheduler.h"