	.file	"ee_std_change_context.c"
__SP_H__ = 0x3e
__SP_L__ = 0x3d
__SREG__ = 0x3f
__tmp_reg__ = 0
__zero_reg__ = 1
	.text
.Ltext0:
	.cfi_sections	.debug_frame
	.section	.text.osEE_change_context_from_running,"ax",@progbits
.global	osEE_change_context_from_running
	.type	osEE_change_context_from_running, @function
osEE_change_context_from_running:
.LFB63:
	.file 1 "C:\\TMP_WO~1\\lab2_v2\\erika\\src\\ee_std_change_context.c"
	.loc 1 62 0
	.cfi_startproc
.LVL0:
/* prologue: function */
/* frame size = 0 */
/* stack size = 0 */
.L__stack_usage = 0
	movw r30,r22
.LVL1:
	movw r26,r24
	adiw r26,2
	ld r20,X+
	ld r21,X
	ldd r22,Z+2
	ldd r23,Z+3
.LVL2:
	.loc 1 65 0
	ldd r26,Z+4
	ldd r27,Z+5
	adiw r26,2
	ld r24,X+
	ld r25,X
.LVL3:
	sbiw r24,2
	brne .L2
	.loc 1 66 0
	movw r24,r30
	jmp osEE_hal_save_ctx_and_restore_ctx
.LVL4:
.L2:
	.loc 1 69 0
	movw r24,r30
	jmp osEE_hal_save_ctx_and_ready2stacked
.LVL5:
	.cfi_endproc
.LFE63:
	.size	osEE_change_context_from_running, .-osEE_change_context_from_running
	.section	.text.osEE_change_context_from_task_end,"ax",@progbits
.global	osEE_change_context_from_task_end
	.type	osEE_change_context_from_task_end, @function
osEE_change_context_from_task_end:
.LFB64:
	.loc 1 82 0
	.cfi_startproc
.LVL6:
/* prologue: function */
/* frame size = 0 */
/* stack size = 0 */
.L__stack_usage = 0
	movw r24,r22
.LVL7:
	movw r26,r22
	adiw r26,2
	ld r22,X+
	ld r23,X
	sbiw r26,2+1
.LVL8:
	.loc 1 85 0
	adiw r26,4
	ld r30,X+
	ld r31,X
	ldd r18,Z+2
	ldd r19,Z+3
	cpi r18,2
	cpc r19,__zero_reg__
	brne .L4
.LVL9:
.LBB8:
.LBB9:
	.loc 1 86 0
	jmp osEE_hal_restore_ctx
.LVL10:
.L4:
.LBE9:
.LBE8:
	.loc 1 88 0
	jmp osEE_hal_ready2stacked
.LVL11:
	.cfi_endproc
.LFE64:
	.size	osEE_change_context_from_task_end, .-osEE_change_context_from_task_end
	.section	.text.osEE_idle_task_terminate,"ax",@progbits
.global	osEE_idle_task_terminate
	.type	osEE_idle_task_terminate, @function
osEE_idle_task_terminate:
.LFB65:
	.loc 1 102 0
	.cfi_startproc
.LVL12:
/* prologue: function */
/* frame size = 0 */
/* stack size = 0 */
.L__stack_usage = 0
	.loc 1 107 0
	movw r26,r24
	adiw r26,2
	ld r22,X+
	ld r23,X
	sbiw r26,2+1
.LVL13:
	.loc 1 108 0
	ld r30,X+
	ld r31,X
	ld r20,Z
	ldd r21,Z+1
.LVL14:
	.loc 1 109 0
	movw r26,r22
	ld r30,X+
	ld r31,X
.LVL15:
.L7:
	.loc 1 113 0 discriminator 2
	ldd r18,Z+18
	ldd r19,Z+19
.LVL16:
	.loc 1 114 0 discriminator 2
	cp r18,__zero_reg__
	cpc r19,__zero_reg__
	breq .L6
	.loc 1 114 0 is_stmt 0 discriminator 1
	cp r20,r18
	cpc r21,r19
	brne .L8
.L6:
	.loc 1 117 0 is_stmt 1
	movw r26,r22
	st X+,r30
	st X,r31
	.loc 1 119 0
	jmp osEE_hal_restore_ctx
.LVL17:
.L8:
	movw r30,r18
.LVL18:
	rjmp .L7
	.cfi_endproc
.LFE65:
	.size	osEE_idle_task_terminate, .-osEE_idle_task_terminate
	.section	.text.osEE_scheduler_task_end,"ax",@progbits
.global	osEE_scheduler_task_end
	.type	osEE_scheduler_task_end, @function
osEE_scheduler_task_end:
.LFB66:
	.loc 1 129 0
	.cfi_startproc
	push r28
.LCFI0:
	.cfi_def_cfa_offset 3
	.cfi_offset 28, -2
	push r29
.LCFI1:
	.cfi_def_cfa_offset 4
	.cfi_offset 29, -3
	rcall .
.LCFI2:
	.cfi_def_cfa_offset 6
	in r28,__SP_L__
	in r29,__SP_H__
.LCFI3:
	.cfi_def_cfa_register 28
/* prologue: function */
/* frame size = 2 */
/* stack size = 4 */
.L__stack_usage = 4
	.loc 1 133 0
	movw r22,r28
	subi r22,-1
	sbci r23,-1
	ldi r24,lo8(osEE_kdb_var)
	ldi r25,hi8(osEE_kdb_var)
	call osEE_scheduler_task_terminated
.LVL19:
.LBB10:
.LBB11:
	.file 2 "C:\\TMP_WO~1\\lab2_v2\\erika\\src\\ee_hal_internal.h"
	.loc 2 190 0
	movw r22,r24
	ldd r24,Y+1
	ldd r25,Y+2
.LVL20:
	call osEE_change_context_from_task_end
.LVL21:
/* epilogue start */
.LBE11:
.LBE10:
	.loc 1 140 0
	pop __tmp_reg__
	pop __tmp_reg__
	pop r29
	pop r28
	ret
	.cfi_endproc
.LFE66:
	.size	osEE_scheduler_task_end, .-osEE_scheduler_task_end
	.text
.Letext0:
	.file 3 "c:\\progra~2\\arduino\\hardware\\tools\\avr\\avr\\include\\stdint.h"
	.file 4 "C:\\TMP_WO~1\\lab2_v2\\erika\\inc/ee_platform_types.h"
	.file 5 "C:\\TMP_WO~1\\lab2_v2\\erika\\inc/ee_api_types.h"
	.file 6 "C:\\TMP_WO~1\\lab2_v2\\erika\\inc/ee_scheduler_types.h"
	.file 7 "C:\\TMP_WO~1\\lab2_v2\\erika\\inc/ee_kernel_types.h"
	.file 8 "C:\\TMP_WO~1\\lab2_v2\\erika\\inc/ee_hal_internal_types.h"
	.file 9 "C:\\TMP_WO~1\\lab2_v2\\erika\\inc/ee_get_kernel_and_core.h"
	.file 10 "C:\\TMP_WO~1\\lab2_v2\\erika\\src\\ee_scheduler.h"
	.file 11 "C:\\TMP_WO~1\\lab2_v2\\erika\\src\\ee_std_change_context.h"